; Function Attrs: nounwind uwtable
define void @SDL_Log(ptr noundef %0, ...) local_unnamed_addr #0 {
  %2 = alloca [1 x %struct.__va_list_tag], align 16
  call void @llvm.lifetime.start.p0(i64 24, ptr nonnull %2) #12
  call void @llvm.va_start.p0(ptr nonnull %2)
  %3 = load ptr, ptr getelementptr inbounds nuw (i8, ptr @jump_table, i64 5080), align 8
  call void %3(i32 noundef 0, i32 noundef 4, ptr noundef %0, ptr noundef nonnull %2) #12
  call void @llvm.va_end.p0(ptr nonnull %2)
  call void @llvm.lifetime.end.p0(i64 24, ptr nonnull %2) #12
  ret void
}